target datalayout = "e-m:e-p270:32:32-p271:32:32-p272:64:64-i64:64-i128:128-f80:128-n8:16:32:64-S128"
target triple = "x86_64-unknown-linux-gnu"

%"class.icu_75::UFormattedListImpl" = type { %"struct.icu_75::UFormattedValueImpl", %"class.icu_75::IcuCApiHelper.0", [4 x i8], %"class.icu_75::FormattedList" }
%"struct.icu_75::UFormattedValueImpl" = type { %"class.icu_75::IcuCApiHelper", ptr }
%"class.icu_75::IcuCApiHelper" = type { i32 }
%"class.icu_75::IcuCApiHelper.0" = type { i32 }
%"class.icu_75::FormattedList" = type <{ %"class.icu_75::FormattedValue", ptr, i32, [4 x i8] }>
%"class.icu_75::FormattedValue" = type { ptr }

; Function Attrs: mustprogress nounwind uwtable
define linkonce_odr void @_ZN6icu_7513IcuCApiHelperI15UFormattedValueNS_19UFormattedValueImplELi1430672896EED2Ev(ptr noundef nonnull align 4 dereferenceable(4) %this) unnamed_addr #0 comdat align 2 {
entry:
  %this.addr = alloca ptr, align 8
  store ptr %this, ptr %this.addr, align 8
  %this1 = load ptr, ptr %this.addr, align 8
  %fMagic = getelementptr inbounds %"class.icu_75::IcuCApiHelper", ptr %this1, i32 0, i32 0
  store i32 0, ptr %fMagic, align 4
  ret void
}

; Function Attrs: mustprogress nounwind uwtable
define linkonce_odr void @_ZN6icu_7519UFormattedValueImplD2Ev(ptr noundef nonnull align 8 dereferenceable(16) %this) unnamed_addr #0 comdat align 2 {
entry:
  %this.addr = alloca ptr, align 8
  store ptr %this, ptr %this.addr, align 8
  %this1 = load ptr, ptr %this.addr, align 8
  call void @_ZN6icu_7513IcuCApiHelperI15UFormattedValueNS_19UFormattedValueImplELi1430672896EED2Ev(ptr noundef nonnull align 4 dereferenceable(4) %this1) #8
  ret void
}

; Function Attrs: mustprogress nounwind uwtable
define linkonce_odr void @_ZN6icu_7513IcuCApiHelperI14UFormattedListNS_18UFormattedListImplELi1179407188EED2Ev(ptr noundef nonnull align 4 dereferenceable(4) %this) unnamed_addr #0 comdat align 2 {
entry:
  %this.addr = alloca ptr, align 8
  store ptr %this, ptr %this.addr, align 8
  %this1 = load ptr, ptr %this.addr, align 8
  %fMagic = getelementptr inbounds %"class.icu_75::IcuCApiHelper.0", ptr %this1, i32 0, i32 0
  store i32 0, ptr %fMagic, align 4
  ret void
}

; Function Attrs: mustprogress nounwind uwtable
define void @_ZN6icu_7518UFormattedListImplD2Ev(ptr noundef nonnull align 8 dereferenceable(48) %this) unnamed_addr #0 align 2 {
entry:
  %this.addr = alloca ptr, align 8
  store ptr %this, ptr %this.addr, align 8
  %this1 = load ptr, ptr %this.addr, align 8
  %fImpl = getelementptr inbounds %"class.icu_75::UFormattedListImpl", ptr %this1, i32 0, i32 3
  call void @_ZN6icu_7513FormattedListD1Ev(ptr noundef nonnull align 8 dereferenceable(20) %fImpl) #8
  %0 = getelementptr inbounds i8, ptr %this1, i64 16
  call void @_ZN6icu_7513IcuCApiHelperI14UFormattedListNS_18UFormattedListImplELi1179407188EED2Ev(ptr noundef nonnull align 4 dereferenceable(4) %0) #8
  call void @_ZN6icu_7519UFormattedValueImplD2Ev(ptr noundef nonnull align 8 dereferenceable(16) %this1) #8
  ret void
}