; Function Attrs: mustprogress nounwind uwtable
define void @_ZN6icu_7518UFormattedListImplD2Ev(ptr noundef nonnull align 8 dereferenceable(48) %this) unnamed_addr #0 align 2 {
entry:
  %fImpl = getelementptr inbounds i8, ptr %this, i64 24
  tail call void @_ZN6icu_7513FormattedListD1Ev(ptr noundef nonnull align 8 dereferenceable(20) %fImpl) #10
  %0 = getelementptr inbounds i8, ptr %this, i64 16
  store i32 0, ptr %0, align 8
  store i32 0, ptr %this, align 8
  ret void
}